target datalayout = "e-m:e-p270:32:32-p271:32:32-p272:64:64-i64:64-i128:128-f80:128-n8:16:32:64-S128"
target triple = "x86_64-pc-linux-gnu"

%struct.ocb128_context = type { ptr, ptr, ptr, ptr, ptr, i64, i64, %union.OCB_BLOCK, %union.OCB_BLOCK, ptr, %struct.anon }
%union.OCB_BLOCK = type { [2 x i64] }
%struct.anon = type { i64, i64, %union.OCB_BLOCK, %union.OCB_BLOCK, %union.OCB_BLOCK, %union.OCB_BLOCK }

@.str = private unnamed_addr constant [33 x i8] c"../openssl/crypto/modes/ocb128.c\00", align 1

; Function Attrs: nounwind uwtable
define i32 @CRYPTO_ocb128_copy_ctx(ptr noundef %0, ptr noundef %1, ptr noundef %2, ptr noundef %3) #0 {
  %5 = alloca i32, align 4
  %6 = alloca ptr, align 8
  %7 = alloca ptr, align 8
  %8 = alloca ptr, align 8
  %9 = alloca ptr, align 8
  store ptr %0, ptr %6, align 8, !tbaa !7
  store ptr %1, ptr %7, align 8, !tbaa !7
  store ptr %2, ptr %8, align 8, !tbaa !3
  store ptr %3, ptr %9, align 8, !tbaa !3
  %10 = load ptr, ptr %6, align 8, !tbaa !7
  %11 = load ptr, ptr %7, align 8, !tbaa !7
  call void @llvm.memcpy.p0.p0.i64(ptr align 8 %10, ptr align 8 %11, i64 176, i1 false)
  %12 = load ptr, ptr %8, align 8, !tbaa !3
  %13 = icmp ne ptr %12, null
  br i1 %13, label %14, label %18

14:                                               ; preds = %4
  %15 = load ptr, ptr %8, align 8, !tbaa !3
  %16 = load ptr, ptr %6, align 8, !tbaa !7
  %17 = getelementptr inbounds nuw %struct.ocb128_context, ptr %16, i32 0, i32 2
  store ptr %15, ptr %17, align 8, !tbaa !21
  br label %18

18:                                               ; preds = %14, %4
  %19 = load ptr, ptr %9, align 8, !tbaa !3
  %20 = icmp ne ptr %19, null
  br i1 %20, label %21, label %25

21:                                               ; preds = %18
  %22 = load ptr, ptr %9, align 8, !tbaa !3
  %23 = load ptr, ptr %6, align 8, !tbaa !7
  %24 = getelementptr inbounds nuw %struct.ocb128_context, ptr %23, i32 0, i32 3
  store ptr %22, ptr %24, align 8, !tbaa !22
  br label %25

25:                                               ; preds = %21, %18
  %26 = load ptr, ptr %7, align 8, !tbaa !7
  %27 = getelementptr inbounds nuw %struct.ocb128_context, ptr %26, i32 0, i32 9
  %28 = load ptr, ptr %27, align 8, !tbaa !17
  %29 = icmp ne ptr %28, null
  br i1 %29, label %30, label %52

30:                                               ; preds = %25
  %31 = load ptr, ptr %7, align 8, !tbaa !7
  %32 = getelementptr inbounds nuw %struct.ocb128_context, ptr %31, i32 0, i32 6
  %33 = load i64, ptr %32, align 8, !tbaa !16
  %34 = mul i64 %33, 16
  %35 = call noalias ptr @CRYPTO_malloc(i64 noundef %34, ptr noundef @.str, i32 noundef 203)
  %36 = load ptr, ptr %6, align 8, !tbaa !7
  %37 = getelementptr inbounds nuw %struct.ocb128_context, ptr %36, i32 0, i32 9
  store ptr %35, ptr %37, align 8, !tbaa !17
  %38 = icmp eq ptr %35, null
  br i1 %38, label %39, label %40

39:                                               ; preds = %30
  store i32 0, ptr %5, align 4
  br label %53

40:                                               ; preds = %30
  %41 = load ptr, ptr %6, align 8, !tbaa !7
  %42 = getelementptr inbounds nuw %struct.ocb128_context, ptr %41, i32 0, i32 9
  %43 = load ptr, ptr %42, align 8, !tbaa !17
  %44 = load ptr, ptr %7, align 8, !tbaa !7
  %45 = getelementptr inbounds nuw %struct.ocb128_context, ptr %44, i32 0, i32 9
  %46 = load ptr, ptr %45, align 8, !tbaa !17
  %47 = load ptr, ptr %7, align 8, !tbaa !7
  %48 = getelementptr inbounds nuw %struct.ocb128_context, ptr %47, i32 0, i32 5
  %49 = load i64, ptr %48, align 8, !tbaa !11
  %50 = add i64 %49, 1
  %51 = mul i64 %50, 16
  call void @llvm.memcpy.p0.p0.i64(ptr align 8 %43, ptr align 8 %46, i64 %51, i1 false)
  br label %52

52:                                               ; preds = %40, %25
  store i32 1, ptr %5, align 4
  br label %53

53:                                               ; preds = %52, %39
  %54 = load i32, ptr %5, align 4
  ret i32 %54
}