; Function Attrs: nounwind uwtable
define range(i32 0, 2) i32 @CRYPTO_ocb128_copy_ctx(ptr noundef writeonly captures(none) initializes((0, 176)) %0, ptr noundef readonly captures(none) %1, ptr noundef %2, ptr noundef %3) local_unnamed_addr #0 {
  tail call void @llvm.memcpy.p0.p0.i64(ptr noundef nonnull align 8 dereferenceable(176) %0, ptr noundef nonnull align 8 dereferenceable(176) %1, i64 176, i1 false)
  %.not = icmp eq ptr %2, null
  br i1 %.not, label %7, label %5

5:                                                ; preds = %4
  %6 = getelementptr inbounds nuw i8, ptr %0, i64 16
  store ptr %2, ptr %6, align 8, !tbaa !15
  br label %7

7:                                                ; preds = %5, %4
  %.not17 = icmp eq ptr %3, null
  br i1 %.not17, label %10, label %8

8:                                                ; preds = %7
  %9 = getelementptr inbounds nuw i8, ptr %0, i64 24
  store ptr %3, ptr %9, align 8, !tbaa !16
  br label %10

10:                                               ; preds = %8, %7
  %11 = getelementptr inbounds nuw i8, ptr %1, i64 88
  %12 = load ptr, ptr %11, align 8, !tbaa !11
  %.not18 = icmp eq ptr %12, null
  br i1 %.not18, label %26, label %13

13:                                               ; preds = %10
  %14 = getelementptr inbounds nuw i8, ptr %1, i64 48
  %15 = load i64, ptr %14, align 8, !tbaa !3
  %16 = shl i64 %15, 4
  %17 = tail call noalias ptr @CRYPTO_malloc(i64 noundef %16, ptr noundef nonnull @.str, i32 noundef 203) #6
  %18 = getelementptr inbounds nuw i8, ptr %0, i64 88
  store ptr %17, ptr %18, align 8, !tbaa !11
  %19 = icmp eq ptr %17, null
  br i1 %19, label %26, label %20

20:                                               ; preds = %13
  %21 = load ptr, ptr %11, align 8, !tbaa !11
  %22 = getelementptr inbounds nuw i8, ptr %1, i64 40
  %23 = load i64, ptr %22, align 8, !tbaa !20
  %24 = shl i64 %23, 4
  %25 = add i64 %24, 16
  tail call void @llvm.memcpy.p0.p0.i64(ptr nonnull align 8 %17, ptr align 8 %21, i64 %25, i1 false)
  br label %26

26:                                               ; preds = %10, %20, %13
  %.0 = phi i32 [ 0, %13 ], [ 1, %20 ], [ 1, %10 ]
  ret i32 %.0
}